MPLINK 5.08, LINKER
Linker Map File - Created Fri Feb 24 19:45:53 2017

                                 Section Info
                  Section       Type    Address   Location Size(Bytes)
                ---------  ---------  ---------  ---------  ---------
                   .org_0       code   0x000000    program   0x000004
                   .cinit    romdata   0x000004    program   0x000002
                   .org_1       code   0x000008    program   0x000004
                   .org_2       code   0x000018    program   0x0002bc
                    dbgP0       code   0x001dc0    program   0x000240
.config_300001_BUILD/DEFAULT/DEBUG/MAIN.O    romdata   0x300001    program   0x000001
.config_300003_BUILD/DEFAULT/DEBUG/MAIN.O    romdata   0x300003    program   0x000001
.config_300005_BUILD/DEFAULT/DEBUG/MAIN.O    romdata   0x300005    program   0x000001
                    dbgD0      udata   0x0001f4       data   0x00000c



                              Program Memory Usage 
                               Start         End      
                           ---------   ---------      
                            0x000000    0x000005      
                            0x000008    0x00000b      
                            0x000018    0x0002d3      
                            0x001dc0    0x001fff      
                            0x300001    0x300001      
                            0x300003    0x300003      
                            0x300005    0x300005      
            1289 out of 8472 program addresses used, program memory utilization is 15%



                              Symbols - Sorted by Name
                     Name    Address   Location    Storage File                     
                ---------  ---------  ---------  --------- ---------                
                    BUCLE   0x00008c    program     static C:\Users\alexj\MPLABXProjects\Walkie-asm\main.asm
               BUCLE_WORD   0x0001e0    program     static C:\Users\alexj\MPLABXProjects\Walkie-asm\main.asm
          CHECK_LOAD_15MS   0x0000bc    program     static C:\Users\alexj\MPLABXProjects\Walkie-asm\main.asm
           CHECK_LOAD_BTN   0x0000a4    program     static C:\Users\alexj\MPLABXProjects\Walkie-asm\main.asm
          CHECK_LOAD_FLAG   0x0000ac    program     static C:\Users\alexj\MPLABXProjects\Walkie-asm\main.asm
          CHECK_SEND_15MS   0x00010a    program     static C:\Users\alexj\MPLABXProjects\Walkie-asm\main.asm
           CHECK_SEND_BTN   0x0000f2    program     static C:\Users\alexj\MPLABXProjects\Walkie-asm\main.asm
          CHECK_SEND_FLAG   0x0000fa    program     static C:\Users\alexj\MPLABXProjects\Walkie-asm\main.asm
               CHECK_SIZE   0x0001d0    program     static C:\Users\alexj\MPLABXProjects\Walkie-asm\main.asm
               CHECK_WORD   0x0001fc    program     static C:\Users\alexj\MPLABXProjects\Walkie-asm\main.asm
              DEMANA_CHAR   0x000152    program     static C:\Users\alexj\MPLABXProjects\Walkie-asm\main.asm
                   DIV_10   0x0002be    program     static C:\Users\alexj\MPLABXProjects\Walkie-asm\main.asm
          END_ENVIA_TRAMA   0x000230    program     static C:\Users\alexj\MPLABXProjects\Walkie-asm\main.asm
              ENVIA_TRAMA   0x0001c8    program     static C:\Users\alexj\MPLABXProjects\Walkie-asm\main.asm
              GUARDA_CHAR   0x000176    program     static C:\Users\alexj\MPLABXProjects\Walkie-asm\main.asm
                 HIGH_INT   0x00001a    program     static C:\Users\alexj\MPLABXProjects\Walkie-asm\main.asm
            HI_INT_VECTOR   0x000008    program     static C:\Users\alexj\MPLABXProjects\Walkie-asm\main.asm
              INIT_EUSART   0x00005c    program     static C:\Users\alexj\MPLABXProjects\Walkie-asm\main.asm
                INIT_INTS   0x000050    program     static C:\Users\alexj\MPLABXProjects\Walkie-asm\main.asm
               INIT_PORTS   0x00003a    program     static C:\Users\alexj\MPLABXProjects\Walkie-asm\main.asm
                 INIT_TMR   0x00006c    program     static C:\Users\alexj\MPLABXProjects\Walkie-asm\main.asm
                INIT_VARS   0x00002c    program     static C:\Users\alexj\MPLABXProjects\Walkie-asm\main.asm
               LEDS_BLINK   0x00028c    program     static C:\Users\alexj\MPLABXProjects\Walkie-asm\main.asm
               LEDS_HORIZ   0x000258    program     static C:\Users\alexj\MPLABXProjects\Walkie-asm\main.asm
                 LEDS_SEG   0x00029e    program     static C:\Users\alexj\MPLABXProjects\Walkie-asm\main.asm
                 LOAD_BTN   0x0000de    program     static C:\Users\alexj\MPLABXProjects\Walkie-asm\main.asm
           LOW_INT_VECTOR   0x000018    program     static C:\Users\alexj\MPLABXProjects\Walkie-asm\main.asm
                     MAIN   0x000078    program     static C:\Users\alexj\MPLABXProjects\Walkie-asm\main.asm
                MOVE_LEFT   0x000266    program     static C:\Users\alexj\MPLABXProjects\Walkie-asm\main.asm
               MOVE_RIGHT   0x00027a    program     static C:\Users\alexj\MPLABXProjects\Walkie-asm\main.asm
                 NEXT_LED   0x000226    program     static C:\Users\alexj\MPLABXProjects\Walkie-asm\main.asm
             RESET_VECTOR   0x000000    program     static C:\Users\alexj\MPLABXProjects\Walkie-asm\main.asm
                     RF_0   0x000240    program     static C:\Users\alexj\MPLABXProjects\Walkie-asm\main.asm
                     RF_1   0x00024c    program     static C:\Users\alexj\MPLABXProjects\Walkie-asm\main.asm
                    RF_KO   0x000194    program     static C:\Users\alexj\MPLABXProjects\Walkie-asm\main.asm
                    RF_OK   0x0001a2    program     static C:\Users\alexj\MPLABXProjects\Walkie-asm\main.asm
                    RX_PC   0x000136    program     static C:\Users\alexj\MPLABXProjects\Walkie-asm\main.asm
                   SEND_0   0x0001f4    program     static C:\Users\alexj\MPLABXProjects\Walkie-asm\main.asm
                 SEND_BTN   0x000122    program     static C:\Users\alexj\MPLABXProjects\Walkie-asm\main.asm
             SEND_MESSAGE   0x000184    program     static C:\Users\alexj\MPLABXProjects\Walkie-asm\main.asm
                 SEND_RAM   0x0001ac    program     static C:\Users\alexj\MPLABXProjects\Walkie-asm\main.asm
                  SEND_RF   0x000188    program     static C:\Users\alexj\MPLABXProjects\Walkie-asm\main.asm
             _.org_2_0158   0x000158    program     static C:\Users\alexj\MPLABXProjects\Walkie-asm\main.asm
             _.org_2_0244   0x000244    program     static C:\Users\alexj\MPLABXProjects\Walkie-asm\main.asm
             _.org_2_0250   0x000250    program     static C:\Users\alexj\MPLABXProjects\Walkie-asm\main.asm



                              Symbols - Sorted by Address
                     Name    Address   Location    Storage File                     
                ---------  ---------  ---------  --------- ---------                
             RESET_VECTOR   0x000000    program     static C:\Users\alexj\MPLABXProjects\Walkie-asm\main.asm
            HI_INT_VECTOR   0x000008    program     static C:\Users\alexj\MPLABXProjects\Walkie-asm\main.asm
           LOW_INT_VECTOR   0x000018    program     static C:\Users\alexj\MPLABXProjects\Walkie-asm\main.asm
                 HIGH_INT   0x00001a    program     static C:\Users\alexj\MPLABXProjects\Walkie-asm\main.asm
                INIT_VARS   0x00002c    program     static C:\Users\alexj\MPLABXProjects\Walkie-asm\main.asm
               INIT_PORTS   0x00003a    program     static C:\Users\alexj\MPLABXProjects\Walkie-asm\main.asm
                INIT_INTS   0x000050    program     static C:\Users\alexj\MPLABXProjects\Walkie-asm\main.asm
              INIT_EUSART   0x00005c    program     static C:\Users\alexj\MPLABXProjects\Walkie-asm\main.asm
                 INIT_TMR   0x00006c    program     static C:\Users\alexj\MPLABXProjects\Walkie-asm\main.asm
                     MAIN   0x000078    program     static C:\Users\alexj\MPLABXProjects\Walkie-asm\main.asm
                    BUCLE   0x00008c    program     static C:\Users\alexj\MPLABXProjects\Walkie-asm\main.asm
           CHECK_LOAD_BTN   0x0000a4    program     static C:\Users\alexj\MPLABXProjects\Walkie-asm\main.asm
          CHECK_LOAD_FLAG   0x0000ac    program     static C:\Users\alexj\MPLABXProjects\Walkie-asm\main.asm
          CHECK_LOAD_15MS   0x0000bc    program     static C:\Users\alexj\MPLABXProjects\Walkie-asm\main.asm
                 LOAD_BTN   0x0000de    program     static C:\Users\alexj\MPLABXProjects\Walkie-asm\main.asm
           CHECK_SEND_BTN   0x0000f2    program     static C:\Users\alexj\MPLABXProjects\Walkie-asm\main.asm
          CHECK_SEND_FLAG   0x0000fa    program     static C:\Users\alexj\MPLABXProjects\Walkie-asm\main.asm
          CHECK_SEND_15MS   0x00010a    program     static C:\Users\alexj\MPLABXProjects\Walkie-asm\main.asm
                 SEND_BTN   0x000122    program     static C:\Users\alexj\MPLABXProjects\Walkie-asm\main.asm
                    RX_PC   0x000136    program     static C:\Users\alexj\MPLABXProjects\Walkie-asm\main.asm
              DEMANA_CHAR   0x000152    program     static C:\Users\alexj\MPLABXProjects\Walkie-asm\main.asm
             _.org_2_0158   0x000158    program     static C:\Users\alexj\MPLABXProjects\Walkie-asm\main.asm
              GUARDA_CHAR   0x000176    program     static C:\Users\alexj\MPLABXProjects\Walkie-asm\main.asm
             SEND_MESSAGE   0x000184    program     static C:\Users\alexj\MPLABXProjects\Walkie-asm\main.asm
                  SEND_RF   0x000188    program     static C:\Users\alexj\MPLABXProjects\Walkie-asm\main.asm
                    RF_KO   0x000194    program     static C:\Users\alexj\MPLABXProjects\Walkie-asm\main.asm
                    RF_OK   0x0001a2    program     static C:\Users\alexj\MPLABXProjects\Walkie-asm\main.asm
                 SEND_RAM   0x0001ac    program     static C:\Users\alexj\MPLABXProjects\Walkie-asm\main.asm
              ENVIA_TRAMA   0x0001c8    program     static C:\Users\alexj\MPLABXProjects\Walkie-asm\main.asm
               CHECK_SIZE   0x0001d0    program     static C:\Users\alexj\MPLABXProjects\Walkie-asm\main.asm
               BUCLE_WORD   0x0001e0    program     static C:\Users\alexj\MPLABXProjects\Walkie-asm\main.asm
                   SEND_0   0x0001f4    program     static C:\Users\alexj\MPLABXProjects\Walkie-asm\main.asm
               CHECK_WORD   0x0001fc    program     static C:\Users\alexj\MPLABXProjects\Walkie-asm\main.asm
                 NEXT_LED   0x000226    program     static C:\Users\alexj\MPLABXProjects\Walkie-asm\main.asm
          END_ENVIA_TRAMA   0x000230    program     static C:\Users\alexj\MPLABXProjects\Walkie-asm\main.asm
                     RF_0   0x000240    program     static C:\Users\alexj\MPLABXProjects\Walkie-asm\main.asm
             _.org_2_0244   0x000244    program     static C:\Users\alexj\MPLABXProjects\Walkie-asm\main.asm
                     RF_1   0x00024c    program     static C:\Users\alexj\MPLABXProjects\Walkie-asm\main.asm
             _.org_2_0250   0x000250    program     static C:\Users\alexj\MPLABXProjects\Walkie-asm\main.asm
               LEDS_HORIZ   0x000258    program     static C:\Users\alexj\MPLABXProjects\Walkie-asm\main.asm
                MOVE_LEFT   0x000266    program     static C:\Users\alexj\MPLABXProjects\Walkie-asm\main.asm
               MOVE_RIGHT   0x00027a    program     static C:\Users\alexj\MPLABXProjects\Walkie-asm\main.asm
               LEDS_BLINK   0x00028c    program     static C:\Users\alexj\MPLABXProjects\Walkie-asm\main.asm
                 LEDS_SEG   0x00029e    program     static C:\Users\alexj\MPLABXProjects\Walkie-asm\main.asm
                   DIV_10   0x0002be    program     static C:\Users\alexj\MPLABXProjects\Walkie-asm\main.asm


